target datalayout = "e-m:e-p270:32:32-p271:32:32-p272:64:64-i64:64-i128:128-f80:128-n8:16:32:64-S128"
target triple = "x86_64-unknown-linux-gnu"

; Function Attrs: mustprogress uwtable
define void @_ZN17grpc_event_engine12experimental12Epoll1Poller11PrepareForkEv(ptr noundef nonnull align 8 dereferenceable(1281) %this) unnamed_addr #5 align 2 {
entry:
  %this.addr = alloca ptr, align 8
  store ptr %this, ptr %this.addr, align 8
  %this1 = load ptr, ptr %this.addr, align 8
  %vtable = load ptr, ptr %this1, align 8
  %vfn = getelementptr inbounds ptr, ptr %vtable, i64 3
  %0 = load ptr, ptr %vfn, align 8
  call void %0(ptr noundef nonnull align 8 dereferenceable(1281) %this1)
  ret void
}

; Function Attrs: uwtable
define void @_ZThn8_N17grpc_event_engine12experimental12Epoll1Poller11PrepareForkEv(ptr noundef %this) unnamed_addr #0 align 2 {
entry:
  %this.addr = alloca ptr, align 8
  store ptr %this, ptr %this.addr, align 8
  %this1 = load ptr, ptr %this.addr, align 8
  %0 = getelementptr inbounds i8, ptr %this1, i64 -8
  tail call void @_ZN17grpc_event_engine12experimental12Epoll1Poller11PrepareForkEv(ptr noundef nonnull align 8 dereferenceable(1281) %0)
  ret void
}