; Function Attrs: uwtable
define void @_ZThn8_N17grpc_event_engine12experimental12Epoll1Poller11PrepareForkEv(ptr noundef %this) unnamed_addr #12 align 2 {
entry:
  %0 = getelementptr inbounds i8, ptr %this, i64 -8
  %vtable.i = load ptr, ptr %0, align 8
  %vfn.i = getelementptr inbounds i8, ptr %vtable.i, i64 24
  %1 = load ptr, ptr %vfn.i, align 8
  tail call void %1(ptr noundef nonnull align 8 dereferenceable(1281) %0)
  ret void
}